target datalayout = "e-m:e-p270:32:32-p271:32:32-p272:64:64-i64:64-i128:128-f80:128-n8:16:32:64-S128"
target triple = "x86_64-pc-linux-gnu"

%struct.StringPiece = type { ptr, i64 }

; Function Attrs: inlinehint mustprogress nounwind uwtable
define linkonce_odr dso_local noundef signext i8 @_Z12ToLowerASCIIc(i8 noundef signext %0) #5 comdat {
  %2 = alloca i8, align 1
  store i8 %0, ptr %2, align 1, !tbaa !4
  %3 = load i8, ptr %2, align 1, !tbaa !4
  %4 = sext i8 %3 to i32
  %5 = icmp sge i32 %4, 65
  br i1 %5, label %6, label %14

6:                                                ; preds = %1
  %7 = load i8, ptr %2, align 1, !tbaa !4
  %8 = sext i8 %7 to i32
  %9 = icmp sle i32 %8, 90
  br i1 %9, label %10, label %14

10:                                               ; preds = %6
  %11 = load i8, ptr %2, align 1, !tbaa !4
  %12 = sext i8 %11 to i32
  %13 = add nsw i32 %12, 32
  br label %17

14:                                               ; preds = %6, %1
  %15 = load i8, ptr %2, align 1, !tbaa !4
  %16 = sext i8 %15 to i32
  br label %17

17:                                               ; preds = %14, %10
  %18 = phi i32 [ %13, %10 ], [ %16, %14 ]
  %19 = trunc i32 %18 to i8
  ret i8 %19
}

; Function Attrs: mustprogress uwtable
define dso_local noundef zeroext i1 @_Z26EqualsCaseInsensitiveASCII11StringPieceS_(ptr %0, i64 %1, ptr %2, i64 %3) #0 {
  %5 = alloca i1, align 1
  %6 = alloca %struct.StringPiece, align 8
  %7 = alloca %struct.StringPiece, align 8
  %8 = alloca i64, align 8
  %9 = alloca i32, align 4
  %10 = getelementptr inbounds nuw { ptr, i64 }, ptr %6, i32 0, i32 0
  store ptr %0, ptr %10, align 8
  %11 = getelementptr inbounds nuw { ptr, i64 }, ptr %6, i32 0, i32 1
  store i64 %1, ptr %11, align 8
  %12 = getelementptr inbounds nuw { ptr, i64 }, ptr %7, i32 0, i32 0
  store ptr %2, ptr %12, align 8
  %13 = getelementptr inbounds nuw { ptr, i64 }, ptr %7, i32 0, i32 1
  store i64 %3, ptr %13, align 8
  %14 = getelementptr inbounds nuw %struct.StringPiece, ptr %6, i32 0, i32 1
  %15 = load i64, ptr %14, align 8, !tbaa !24
  %16 = getelementptr inbounds nuw %struct.StringPiece, ptr %7, i32 0, i32 1
  %17 = load i64, ptr %16, align 8, !tbaa !24
  %18 = icmp ne i64 %15, %17
  br i1 %18, label %19, label %20

19:                                               ; preds = %4
  store i1 false, ptr %5, align 1
  br label %51

20:                                               ; preds = %4
  call void @llvm.lifetime.start.p0(i64 8, ptr %8) #14
  store i64 0, ptr %8, align 8, !tbaa !14
  br label %21

21:                                               ; preds = %45, %20
  %22 = load i64, ptr %8, align 8, !tbaa !14
  %23 = getelementptr inbounds nuw %struct.StringPiece, ptr %6, i32 0, i32 1
  %24 = load i64, ptr %23, align 8, !tbaa !24
  %25 = icmp ult i64 %22, %24
  br i1 %25, label %27, label %26

26:                                               ; preds = %21
  store i32 2, ptr %9, align 4
  br label %48

27:                                               ; preds = %21
  %28 = getelementptr inbounds nuw %struct.StringPiece, ptr %6, i32 0, i32 0
  %29 = load ptr, ptr %28, align 8, !tbaa !22
  %30 = load i64, ptr %8, align 8, !tbaa !14
  %31 = getelementptr inbounds nuw i8, ptr %29, i64 %30
  %32 = load i8, ptr %31, align 1, !tbaa !4
  %33 = call noundef signext i8 @_Z12ToLowerASCIIc(i8 noundef signext %32)
  %34 = sext i8 %33 to i32
  %35 = getelementptr inbounds nuw %struct.StringPiece, ptr %7, i32 0, i32 0
  %36 = load ptr, ptr %35, align 8, !tbaa !22
  %37 = load i64, ptr %8, align 8, !tbaa !14
  %38 = getelementptr inbounds nuw i8, ptr %36, i64 %37
  %39 = load i8, ptr %38, align 1, !tbaa !4
  %40 = call noundef signext i8 @_Z12ToLowerASCIIc(i8 noundef signext %39)
  %41 = sext i8 %40 to i32
  %42 = icmp ne i32 %34, %41
  br i1 %42, label %43, label %44

43:                                               ; preds = %27
  store i1 false, ptr %5, align 1
  store i32 1, ptr %9, align 4
  br label %48

44:                                               ; preds = %27
  br label %45

45:                                               ; preds = %44
  %46 = load i64, ptr %8, align 8, !tbaa !14
  %47 = add i64 %46, 1
  store i64 %47, ptr %8, align 8, !tbaa !14
  br label %21, !llvm.loop !31

48:                                               ; preds = %43, %26
  call void @llvm.lifetime.end.p0(i64 8, ptr %8) #14
  %49 = load i32, ptr %9, align 4
  switch i32 %49, label %53 [
    i32 2, label %50
    i32 1, label %51
  ]

50:                                               ; preds = %48
  store i1 true, ptr %5, align 1
  br label %51

51:                                               ; preds = %50, %48, %19
  %52 = load i1, ptr %5, align 1
  ret i1 %52

53:                                               ; preds = %48
  unreachable
}