; Function Attrs: mustprogress nofree norecurse nosync nounwind willreturn memory(argmem: read) uwtable
define dso_local noundef zeroext i1 @_Z26EqualsCaseInsensitiveASCII11StringPieceS_(ptr readonly captures(none) %0, i64 %1, ptr readonly captures(none) %2, i64 %3) local_unnamed_addr #2 {
  %.not = icmp eq i64 %1, %3
  br i1 %.not, label %.preheader, label %.loopexit

.preheader:                                       ; preds = %4
  %5 = icmp eq i64 %1, 0
  br i1 %5, label %.loopexit, label %.lr.ph

.lr.ph:                                           ; preds = %.preheader, %.lr.ph
  %.0813 = phi i64 [ %16, %.lr.ph ], [ 0, %.preheader ]
  %6 = getelementptr inbounds nuw i8, ptr %0, i64 %.0813
  %7 = load i8, ptr %6, align 1, !tbaa !4
  %8 = add i8 %7, -65
  %or.cond.i = icmp ult i8 %8, 26
  %9 = add nuw nsw i8 %7, 32
  %10 = select i1 %or.cond.i, i8 %9, i8 %7
  %11 = getelementptr inbounds nuw i8, ptr %2, i64 %.0813
  %12 = load i8, ptr %11, align 1, !tbaa !4
  %13 = add i8 %12, -65
  %or.cond.i12 = icmp ult i8 %13, 26
  %14 = add nuw nsw i8 %12, 32
  %15 = select i1 %or.cond.i12, i8 %14, i8 %12
  %.not11 = icmp eq i8 %10, %15
  %16 = add nuw i64 %.0813, 1
  %exitcond.not = icmp ne i64 %16, %1
  %or.cond.not = select i1 %.not11, i1 %exitcond.not, i1 false
  br i1 %or.cond.not, label %.lr.ph, label %.loopexit, !llvm.loop !41

.loopexit:                                        ; preds = %.lr.ph, %.preheader, %4
  %.09 = phi i1 [ false, %4 ], [ true, %.preheader ], [ %.not11, %.lr.ph ]
  ret i1 %.09
}